	.file	"chall.c"
	.text
	.section	.rodata
	.align 8
.LC1:
	.string	"Correct! You entered the flag."
.LC2:
	.string	"No, that's not right."
	.align 8
.LC0:
	.string	"Ko\370`\266\205\274"
	.string	"\\I\234C\022\333\201\026\260\202\226(l\247\321B\314n7\255\324 m\363\242\2627\323\025\347\371\356\370\360\253w\234\275\375\021o"
	.text
	.globl	main
	.type	main, @function
main:
.LFB5:
	.cfi_startproc
	pushq	%rbp
	.cfi_def_cfa_offset 16
	.cfi_offset 6, -16
	movq	%rsp, %rbp
	.cfi_def_cfa_register 6
	pushq	%rbx
	subq	$296, %rsp
	.cfi_offset 3, -24
	movl	%edi, -292(%rbp)
	movq	%rsi, -304(%rbp)
	movq	%fs:40, %rax
	movq	%rax, -24(%rbp)
	xorl	%eax, %eax
	movq	.LC0(%rip), %rax
	movq	8+.LC0(%rip), %rdx
	movq	%rax, -144(%rbp)
	movq	%rdx, -136(%rbp)
	movq	16+.LC0(%rip), %rax
	movq	24+.LC0(%rip), %rdx
	movq	%rax, -128(%rbp)
	movq	%rdx, -120(%rbp)
	movq	32+.LC0(%rip), %rax
	movq	40+.LC0(%rip), %rdx
	movq	%rax, -112(%rbp)
	movq	%rdx, -104(%rbp)
	movzwl	48+.LC0(%rip), %eax
	movw	%ax, -96(%rbp)
	movabsq	$8065885231649526824, %rax
	movabsq	$6196940307316812323, %rdx
	movq	%rax, -80(%rbp)
	movq	%rdx, -72(%rbp)
	movabsq	$1848604580194283143, %rax
	movabsq	$-8263156787455125514, %rdx
	movq	%rax, -64(%rbp)
	movq	%rdx, -56(%rbp)
	movabsq	$-8817867454929308210, %rax
	movabsq	$5257637645850377713, %rdx
	movq	%rax, -48(%rbp)
	movq	%rdx, -40(%rbp)
	movw	$49, -32(%rbp)
	movq	stdin(%rip), %rdx
	leaq	-208(%rbp), %rax
	movl	$49, %esi
	movq	%rax, %rdi
	call	fgets@PLT
	movl	$0, -276(%rbp)
	jmp	.L2
.L3:
	movl	-276(%rbp), %eax
	cltq
	movzbl	-144(%rbp,%rax), %edx
	movl	-276(%rbp), %eax
	cltq
	movzbl	-80(%rbp,%rax), %eax
	xorl	%eax, %edx
	movl	-276(%rbp), %eax
	xorl	%edx, %eax
	xorl	$19, %eax
	movl	%eax, %edx
	movl	-276(%rbp), %eax
	cltq
	movb	%dl, -272(%rbp,%rax)
	addl	$1, -276(%rbp)
.L2:
	movl	-276(%rbp), %eax
	movslq	%eax, %rbx
	leaq	-144(%rbp), %rax
	movq	%rax, %rdi
	call	strlen@PLT
	cmpq	%rax, %rbx
	jb	.L3
	leaq	-272(%rbp), %rcx
	leaq	-208(%rbp), %rax
	movl	$49, %edx
	movq	%rcx, %rsi
	movq	%rax, %rdi
	call	memcmp@PLT
	testl	%eax, %eax
	je	.L4
	leaq	.LC1(%rip), %rdi
	call	puts@PLT
	movl	$0, %eax
	jmp	.L6
.L4:
	leaq	.LC2(%rip), %rdi
	call	puts@PLT
	movl	$1, %eax
.L6:
	movq	-24(%rbp), %rcx
	xorq	%fs:40, %rcx
	je	.L7
	call	__stack_chk_fail@PLT
.L7:
	addq	$296, %rsp
	popq	%rbx
	popq	%rbp
	.cfi_def_cfa 7, 8
	ret
	.cfi_endproc
.LFE5:
	.size	main, .-main
	.ident	"GCC: (Ubuntu 7.5.0-3ubuntu1~18.04) 7.5.0"
	.section	.note.GNU-stack,"",@progbits
